; Function Attrs: nofree norecurse nosync nounwind memory(argmem: readwrite) uwtable
define internal void @rv34_idct_add_c(ptr noundef captures(none) %0, i64 noundef %1, ptr noundef captures(none) %2) #1 {
  %4 = alloca [16 x i32], align 16
  call void @llvm.lifetime.start.p0(i64 64, ptr nonnull %4) #4
  br label %5

5:                                                ; preds = %3, %5
  %indvars.iv = phi i64 [ 0, %3 ], [ %indvars.iv.next, %5 ]
  %6 = getelementptr inbounds nuw i16, ptr %2, i64 %indvars.iv
  %7 = load i16, ptr %6, align 2, !tbaa !12
  %8 = sext i16 %7 to i32
  %9 = getelementptr inbounds nuw i8, ptr %6, i64 16
  %10 = load i16, ptr %9, align 2, !tbaa !12
  %11 = sext i16 %10 to i32
  %12 = add nsw i32 %11, %8
  %13 = mul nsw i32 %12, 13
  %14 = sub nsw i32 %8, %11
  %15 = mul nsw i32 %14, 13
  %16 = getelementptr inbounds nuw i8, ptr %6, i64 8
  %17 = load i16, ptr %16, align 2, !tbaa !12
  %18 = sext i16 %17 to i32
  %19 = mul nsw i32 %18, 7
  %20 = getelementptr inbounds nuw i8, ptr %6, i64 24
  %21 = load i16, ptr %20, align 2, !tbaa !12
  %22 = sext i16 %21 to i32
  %.neg.i = mul nsw i32 %22, -17
  %23 = add nsw i32 %.neg.i, %19
  %24 = mul nsw i32 %18, 17
  %25 = mul nsw i32 %22, 7
  %26 = add nsw i32 %25, %24
  %27 = add nsw i32 %26, %13
  %.idx = shl nuw nsw i64 %indvars.iv, 4
  %28 = getelementptr inbounds nuw i8, ptr %4, i64 %.idx
  store i32 %27, ptr %28, align 16, !tbaa !14
  %29 = add nsw i32 %23, %15
  %30 = getelementptr inbounds nuw i8, ptr %28, i64 4
  store i32 %29, ptr %30, align 4, !tbaa !14
  %31 = sub nsw i32 %15, %23
  %32 = getelementptr inbounds nuw i8, ptr %28, i64 8
  store i32 %31, ptr %32, align 8, !tbaa !14
  %33 = sub nsw i32 %13, %26
  %34 = getelementptr inbounds nuw i8, ptr %28, i64 12
  store i32 %33, ptr %34, align 4, !tbaa !14
  %indvars.iv.next = add nuw nsw i64 %indvars.iv, 1
  %exitcond.not = icmp eq i64 %indvars.iv.next, 4
  br i1 %exitcond.not, label %.lver.check, label %5, !llvm.loop !16

.lver.check:                                      ; preds = %5
  tail call void @llvm.memset.p0.i64(ptr noundef nonnull align 2 dereferenceable(32) %2, i8 0, i64 32, i1 false)
  %ident.check.not = icmp eq i64 %1, 1
  br i1 %ident.check.not, label %.ph, label %.ph.lver.orig

.ph.lver.orig:                                    ; preds = %.lver.check, %.ph.lver.orig
  %indvars.iv44.lver.orig = phi i64 [ %indvars.iv.next45.lver.orig, %.ph.lver.orig ], [ 0, %.lver.check ]
  %.042.lver.orig = phi ptr [ %88, %.ph.lver.orig ], [ %0, %.lver.check ]
  %35 = getelementptr inbounds nuw [16 x i32], ptr %4, i64 0, i64 %indvars.iv44.lver.orig
  %36 = load i32, ptr %35, align 4, !tbaa !14
  %37 = or disjoint i64 %indvars.iv44.lver.orig, 8
  %38 = getelementptr inbounds nuw [16 x i32], ptr %4, i64 0, i64 %37
  %39 = load i32, ptr %38, align 4, !tbaa !14
  %40 = add nsw i32 %39, %36
  %41 = mul nsw i32 %40, 13
  %42 = add nsw i32 %41, 512
  %43 = sub nsw i32 %36, %39
  %44 = mul nsw i32 %43, 13
  %45 = add nsw i32 %44, 512
  %46 = or disjoint i64 %indvars.iv44.lver.orig, 4
  %47 = getelementptr inbounds nuw [16 x i32], ptr %4, i64 0, i64 %46
  %48 = load i32, ptr %47, align 4, !tbaa !14
  %49 = mul nsw i32 %48, 7
  %50 = or disjoint i64 %indvars.iv44.lver.orig, 12
  %51 = getelementptr inbounds nuw [16 x i32], ptr %4, i64 0, i64 %50
  %52 = load i32, ptr %51, align 4, !tbaa !14
  %.neg.lver.orig = mul i32 %52, -17
  %53 = add i32 %.neg.lver.orig, %49
  %54 = mul nsw i32 %48, 17
  %55 = mul nsw i32 %52, 7
  %56 = add nsw i32 %55, %54
  %57 = load i8, ptr %.042.lver.orig, align 1, !tbaa !21
  %58 = zext i8 %57 to i32
  %59 = add nsw i32 %56, %42
  %60 = ashr i32 %59, 10
  %61 = add nsw i32 %60, %58
  %.not.i.lver.orig = icmp ult i32 %61, 256
  %isnotneg.i.lver.orig = icmp sgt i32 %61, -1
  %62 = sext i1 %isnotneg.i.lver.orig to i8
  %63 = trunc nuw i32 %61 to i8
  %.0.i30.lver.orig = select i1 %.not.i.lver.orig, i8 %63, i8 %62
  store i8 %.0.i30.lver.orig, ptr %.042.lver.orig, align 1, !tbaa !21
  %64 = getelementptr inbounds nuw i8, ptr %.042.lver.orig, i64 1
  %65 = load i8, ptr %64, align 1, !tbaa !21
  %66 = zext i8 %65 to i32
  %67 = add nsw i32 %53, %45
  %68 = ashr i32 %67, 10
  %69 = add nsw i32 %68, %66
  %.not.i31.lver.orig = icmp ult i32 %69, 256
  %isnotneg.i32.lver.orig = icmp sgt i32 %69, -1
  %70 = sext i1 %isnotneg.i32.lver.orig to i8
  %71 = trunc nuw i32 %69 to i8
  %.0.i33.lver.orig = select i1 %.not.i31.lver.orig, i8 %71, i8 %70
  store i8 %.0.i33.lver.orig, ptr %64, align 1, !tbaa !21
  %72 = getelementptr inbounds nuw i8, ptr %.042.lver.orig, i64 2
  %73 = load i8, ptr %72, align 1, !tbaa !21
  %74 = zext i8 %73 to i32
  %75 = sub nsw i32 %45, %53
  %76 = ashr i32 %75, 10
  %77 = add nsw i32 %76, %74
  %.not.i34.lver.orig = icmp ult i32 %77, 256
  %isnotneg.i35.lver.orig = icmp sgt i32 %77, -1
  %78 = sext i1 %isnotneg.i35.lver.orig to i8
  %79 = trunc nuw i32 %77 to i8
  %.0.i36.lver.orig = select i1 %.not.i34.lver.orig, i8 %79, i8 %78
  store i8 %.0.i36.lver.orig, ptr %72, align 1, !tbaa !21
  %80 = getelementptr inbounds nuw i8, ptr %.042.lver.orig, i64 3
  %81 = load i8, ptr %80, align 1, !tbaa !21
  %82 = zext i8 %81 to i32
  %83 = sub nsw i32 %42, %56
  %84 = ashr i32 %83, 10
  %85 = add nsw i32 %84, %82
  %.not.i37.lver.orig = icmp ult i32 %85, 256
  %isnotneg.i38.lver.orig = icmp sgt i32 %85, -1
  %86 = sext i1 %isnotneg.i38.lver.orig to i8
  %87 = trunc nuw i32 %85 to i8
  %.0.i39.lver.orig = select i1 %.not.i37.lver.orig, i8 %87, i8 %86
  store i8 %.0.i39.lver.orig, ptr %80, align 1, !tbaa !21
  %88 = getelementptr inbounds i8, ptr %.042.lver.orig, i64 %1
  %indvars.iv.next45.lver.orig = add nuw nsw i64 %indvars.iv44.lver.orig, 1
  %exitcond47.not.lver.orig = icmp eq i64 %indvars.iv.next45.lver.orig, 4
  br i1 %exitcond47.not.lver.orig, label %.loopexit, label %.ph.lver.orig, !llvm.loop !22

.ph:                                              ; preds = %.lver.check
  %scevgep = getelementptr i8, ptr %0, i64 2
  %load_initial = load i8, ptr %scevgep, align 1
  br label %89

89:                                               ; preds = %.ph, %89
  %store_forwarded = phi i8 [ %load_initial, %.ph ], [ %.0.i39, %89 ]
  %indvars.iv44 = phi i64 [ 0, %.ph ], [ %indvars.iv.next45, %89 ]
  %.042 = phi ptr [ %0, %.ph ], [ %142, %89 ]
  %90 = getelementptr inbounds nuw [16 x i32], ptr %4, i64 0, i64 %indvars.iv44
  %91 = load i32, ptr %90, align 4, !tbaa !14
  %92 = or disjoint i64 %indvars.iv44, 8
  %93 = getelementptr inbounds nuw [16 x i32], ptr %4, i64 0, i64 %92
  %94 = load i32, ptr %93, align 4, !tbaa !14
  %95 = add nsw i32 %94, %91
  %96 = mul nsw i32 %95, 13
  %97 = add nsw i32 %96, 512
  %98 = sub nsw i32 %91, %94
  %99 = mul nsw i32 %98, 13
  %100 = add nsw i32 %99, 512
  %101 = or disjoint i64 %indvars.iv44, 4
  %102 = getelementptr inbounds nuw [16 x i32], ptr %4, i64 0, i64 %101
  %103 = load i32, ptr %102, align 4, !tbaa !14
  %104 = mul nsw i32 %103, 7
  %105 = or disjoint i64 %indvars.iv44, 12
  %106 = getelementptr inbounds nuw [16 x i32], ptr %4, i64 0, i64 %105
  %107 = load i32, ptr %106, align 4, !tbaa !14
  %.neg = mul i32 %107, -17
  %108 = add i32 %.neg, %104
  %109 = mul nsw i32 %103, 17
  %110 = mul nsw i32 %107, 7
  %111 = add nsw i32 %110, %109
  %112 = load i8, ptr %.042, align 1, !tbaa !21
  %113 = zext i8 %112 to i32
  %114 = add nsw i32 %111, %97
  %115 = ashr i32 %114, 10
  %116 = add nsw i32 %115, %113
  %.not.i = icmp ult i32 %116, 256
  %isnotneg.i = icmp sgt i32 %116, -1
  %117 = sext i1 %isnotneg.i to i8
  %118 = trunc nuw i32 %116 to i8
  %.0.i30 = select i1 %.not.i, i8 %118, i8 %117
  store i8 %.0.i30, ptr %.042, align 1, !tbaa !21
  %119 = getelementptr inbounds nuw i8, ptr %.042, i64 1
  %120 = load i8, ptr %119, align 1, !tbaa !21
  %121 = zext i8 %120 to i32
  %122 = add nsw i32 %108, %100
  %123 = ashr i32 %122, 10
  %124 = add nsw i32 %123, %121
  %.not.i31 = icmp ult i32 %124, 256
  %isnotneg.i32 = icmp sgt i32 %124, -1
  %125 = sext i1 %isnotneg.i32 to i8
  %126 = trunc nuw i32 %124 to i8
  %.0.i33 = select i1 %.not.i31, i8 %126, i8 %125
  store i8 %.0.i33, ptr %119, align 1, !tbaa !21
  %127 = getelementptr inbounds nuw i8, ptr %.042, i64 2
  %128 = zext i8 %store_forwarded to i32
  %129 = sub nsw i32 %100, %108
  %130 = ashr i32 %129, 10
  %131 = add nsw i32 %130, %128
  %.not.i34 = icmp ult i32 %131, 256
  %isnotneg.i35 = icmp sgt i32 %131, -1
  %132 = sext i1 %isnotneg.i35 to i8
  %133 = trunc nuw i32 %131 to i8
  %.0.i36 = select i1 %.not.i34, i8 %133, i8 %132
  store i8 %.0.i36, ptr %127, align 1, !tbaa !21
  %134 = getelementptr inbounds nuw i8, ptr %.042, i64 3
  %135 = load i8, ptr %134, align 1, !tbaa !21
  %136 = zext i8 %135 to i32
  %137 = sub nsw i32 %97, %111
  %138 = ashr i32 %137, 10
  %139 = add nsw i32 %138, %136
  %.not.i37 = icmp ult i32 %139, 256
  %isnotneg.i38 = icmp sgt i32 %139, -1
  %140 = sext i1 %isnotneg.i38 to i8
  %141 = trunc nuw i32 %139 to i8
  %.0.i39 = select i1 %.not.i37, i8 %141, i8 %140
  store i8 %.0.i39, ptr %134, align 1, !tbaa !21
  %142 = getelementptr inbounds nuw i8, ptr %.042, i64 %1
  %indvars.iv.next45 = add nuw nsw i64 %indvars.iv44, 1
  %exitcond47.not = icmp eq i64 %indvars.iv.next45, 4
  br i1 %exitcond47.not, label %.loopexit, label %89, !llvm.loop !22

.loopexit:                                        ; preds = %.ph.lver.orig, %89
  call void @llvm.lifetime.end.p0(i64 64, ptr nonnull %4) #4
  ret void
}